; ModuleID = '41/90.cpp'
source_filename = "41/90.cpp"
target datalayout = "e-m:e-p270:32:32-p271:32:32-p272:64:64-i64:64-f80:128-n8:16:32:64-S128"
target triple = "x86_64-pc-linux-gnu"

%"class.std::ios_base::Init" = type { i8 }
%"class.std::basic_ostream" = type { i32 (...)**, %"class.std::basic_ios" }
%"class.std::basic_ios" = type { %"class.std::ios_base", %"class.std::basic_ostream"*, i8, i8, %"class.std::basic_streambuf"*, %"class.std::ctype"*, %"class.std::num_put"*, %"class.std::num_get"* }
%"class.std::ios_base" = type { i32 (...)**, i64, i64, i32, i32, i32, %"struct.std::ios_base::_Callback_list"*, %"struct.std::ios_base::_Words", [8 x %"struct.std::ios_base::_Words"], i32, %"struct.std::ios_base::_Words"*, %"class.std::locale" }
%"struct.std::ios_base::_Callback_list" = type { %"struct.std::ios_base::_Callback_list"*, void (i32, %"class.std::ios_base"*, i32)*, i32, i32 }
%"struct.std::ios_base::_Words" = type { i8*, i64 }
%"class.std::locale" = type { %"class.std::locale::_Impl"* }
%"class.std::locale::_Impl" = type { i32, %"class.std::locale::facet"**, i64, %"class.std::locale::facet"**, i8** }
%"class.std::locale::facet" = type <{ i32 (...)**, i32, [4 x i8] }>
%"class.std::basic_streambuf" = type { i32 (...)**, i8*, i8*, i8*, i8*, i8*, i8*, %"class.std::locale" }
%"class.std::ctype" = type <{ %"class.std::locale::facet.base", [4 x i8], %struct.__locale_struct*, i8, [7 x i8], i32*, i32*, i16*, i8, [256 x i8], [256 x i8], i8, [6 x i8] }>
%"class.std::locale::facet.base" = type <{ i32 (...)**, i32 }>
%struct.__locale_struct = type { [13 x %struct.__locale_data*], i16*, i32*, i32*, [13 x i8*] }
%struct.__locale_data = type opaque
%"class.std::num_put" = type { %"class.std::locale::facet.base", [4 x i8] }
%"class.std::num_get" = type { %"class.std::locale::facet.base", [4 x i8] }

@_ZStL8__ioinit = internal global %"class.std::ios_base::Init" zeroinitializer, align 1
@__dso_handle = external hidden global i8
@_ZSt4cout = external dso_local global %"class.std::basic_ostream", align 8
@llvm.global_ctors = appending global [1 x { i32, void ()*, i8* }] [{ i32, void ()*, i8* } { i32 65535, void ()* @_GLOBAL__sub_I_90.cpp, i8* null }]

; Function Attrs: noinline uwtable
define internal void @__cxx_global_var_init() #0 section ".text.startup" {
  call void @_ZNSt8ios_base4InitC1Ev(%"class.std::ios_base::Init"* @_ZStL8__ioinit)
  %1 = call i32 @__cxa_atexit(void (i8*)* bitcast (void (%"class.std::ios_base::Init"*)* @_ZNSt8ios_base4InitD1Ev to void (i8*)*), i8* getelementptr inbounds (%"class.std::ios_base::Init", %"class.std::ios_base::Init"* @_ZStL8__ioinit, i32 0, i32 0), i8* @__dso_handle) #3
  ret void
}

declare dso_local void @_ZNSt8ios_base4InitC1Ev(%"class.std::ios_base::Init"*) unnamed_addr #1

; Function Attrs: nounwind
declare dso_local void @_ZNSt8ios_base4InitD1Ev(%"class.std::ios_base::Init"*) unnamed_addr #2

; Function Attrs: nounwind
declare dso_local i32 @__cxa_atexit(void (i8*)*, i8*, i8*) #3

; Function Attrs: noinline norecurse uwtable
define dso_local i32 @main() #4 {
  %1 = alloca i32, align 4
  %2 = alloca i32, align 4
  %3 = alloca i32, align 4
  %4 = alloca i32, align 4
  %5 = alloca i32, align 4
  %6 = alloca i32, align 4
  %7 = alloca [6 x i32], align 16
  %8 = alloca [6 x i32], align 16
  store i32 0, i32* %1, align 4
  %9 = bitcast [6 x i32]* %7 to i8*
  call void @llvm.memset.p0i8.i64(i8* align 16 %9, i8 0, i64 24, i1 false)
  %10 = bitcast [6 x i32]* %8 to i8*
  call void @llvm.memset.p0i8.i64(i8* align 16 %10, i8 0, i64 24, i1 false)
  store i32 1, i32* %2, align 4
  br label %11

11:                                               ; preds = %163, %0
  %12 = load i32, i32* %2, align 4
  %13 = icmp slt i32 %12, 6
  br i1 %13, label %14, label %166

14:                                               ; preds = %11
  store i32 1, i32* %3, align 4
  br label %15

15:                                               ; preds = %159, %14
  %16 = load i32, i32* %3, align 4
  %17 = icmp slt i32 %16, 6
  br i1 %17, label %18, label %162

18:                                               ; preds = %15
  %19 = load i32, i32* %2, align 4
  %20 = load i32, i32* %3, align 4
  %21 = icmp eq i32 %19, %20
  br i1 %21, label %22, label %23

22:                                               ; preds = %18
  br label %159

23:                                               ; preds = %18
  store i32 1, i32* %4, align 4
  br label %24

24:                                               ; preds = %155, %23
  %25 = load i32, i32* %4, align 4
  %26 = icmp slt i32 %25, 6
  br i1 %26, label %27, label %158

27:                                               ; preds = %24
  %28 = load i32, i32* %2, align 4
  %29 = load i32, i32* %4, align 4
  %30 = icmp eq i32 %28, %29
  br i1 %30, label %35, label %31

31:                                               ; preds = %27
  %32 = load i32, i32* %3, align 4
  %33 = load i32, i32* %4, align 4
  %34 = icmp eq i32 %32, %33
  br i1 %34, label %35, label %36

35:                                               ; preds = %31, %27
  br label %155

36:                                               ; preds = %31
  store i32 1, i32* %5, align 4
  br label %37

37:                                               ; preds = %151, %36
  %38 = load i32, i32* %5, align 4
  %39 = icmp slt i32 %38, 6
  br i1 %39, label %40, label %154

40:                                               ; preds = %37
  %41 = load i32, i32* %2, align 4
  %42 = load i32, i32* %5, align 4
  %43 = icmp eq i32 %41, %42
  br i1 %43, label %52, label %44

44:                                               ; preds = %40
  %45 = load i32, i32* %3, align 4
  %46 = load i32, i32* %5, align 4
  %47 = icmp eq i32 %45, %46
  br i1 %47, label %52, label %48

48:                                               ; preds = %44
  %49 = load i32, i32* %4, align 4
  %50 = load i32, i32* %5, align 4
  %51 = icmp eq i32 %49, %50
  br i1 %51, label %52, label %53

52:                                               ; preds = %48, %44, %40
  br label %151

53:                                               ; preds = %48
  %54 = load i32, i32* %2, align 4
  %55 = sub nsw i32 15, %54
  %56 = load i32, i32* %3, align 4
  %57 = sub nsw i32 %55, %56
  %58 = load i32, i32* %4, align 4
  %59 = sub nsw i32 %57, %58
  %60 = load i32, i32* %5, align 4
  %61 = sub nsw i32 %59, %60
  store i32 %61, i32* %6, align 4
  %62 = load i32, i32* %6, align 4
  %63 = icmp eq i32 %62, 1
  %64 = zext i1 %63 to i32
  %65 = getelementptr inbounds [6 x i32], [6 x i32]* %7, i64 0, i64 1
  store i32 %64, i32* %65, align 4
  %66 = load i32, i32* %2, align 4
  %67 = icmp eq i32 %66, 5
  %68 = zext i1 %67 to i32
  %69 = getelementptr inbounds [6 x i32], [6 x i32]* %7, i64 0, i64 3
  store i32 %68, i32* %69, align 4
  %70 = load i32, i32* %4, align 4
  %71 = icmp ne i32 %70, 1
  %72 = zext i1 %71 to i32
  %73 = getelementptr inbounds [6 x i32], [6 x i32]* %7, i64 0, i64 4
  store i32 %72, i32* %73, align 16
  %74 = load i32, i32* %5, align 4
  %75 = icmp eq i32 %74, 1
  %76 = zext i1 %75 to i32
  %77 = getelementptr inbounds [6 x i32], [6 x i32]* %7, i64 0, i64 5
  store i32 %76, i32* %77, align 4
  %78 = load i32, i32* %3, align 4
  %79 = icmp eq i32 %78, 2
  %80 = zext i1 %79 to i32
  %81 = getelementptr inbounds [6 x i32], [6 x i32]* %7, i64 0, i64 2
  store i32 %80, i32* %81, align 8
  %82 = load i32, i32* %2, align 4
  %83 = sext i32 %82 to i64
  %84 = getelementptr inbounds [6 x i32], [6 x i32]* %8, i64 0, i64 %83
  store i32 1, i32* %84, align 4
  %85 = load i32, i32* %3, align 4
  %86 = sext i32 %85 to i64
  %87 = getelementptr inbounds [6 x i32], [6 x i32]* %8, i64 0, i64 %86
  store i32 2, i32* %87, align 4
  %88 = load i32, i32* %4, align 4
  %89 = sext i32 %88 to i64
  %90 = getelementptr inbounds [6 x i32], [6 x i32]* %8, i64 0, i64 %89
  store i32 3, i32* %90, align 4
  %91 = load i32, i32* %5, align 4
  %92 = sext i32 %91 to i64
  %93 = getelementptr inbounds [6 x i32], [6 x i32]* %8, i64 0, i64 %92
  store i32 4, i32* %93, align 4
  %94 = load i32, i32* %6, align 4
  %95 = sext i32 %94 to i64
  %96 = getelementptr inbounds [6 x i32], [6 x i32]* %8, i64 0, i64 %95
  store i32 5, i32* %96, align 4
  %97 = load i32, i32* %6, align 4
  %98 = icmp ne i32 %97, 2
  br i1 %98, label %99, label %150

99:                                               ; preds = %53
  %100 = load i32, i32* %6, align 4
  %101 = icmp ne i32 %100, 3
  br i1 %101, label %102, label %150

102:                                              ; preds = %99
  %103 = getelementptr inbounds [6 x i32], [6 x i32]* %8, i64 0, i64 1
  %104 = load i32, i32* %103, align 4
  %105 = sext i32 %104 to i64
  %106 = getelementptr inbounds [6 x i32], [6 x i32]* %7, i64 0, i64 %105
  %107 = load i32, i32* %106, align 4
  %108 = icmp eq i32 %107, 1
  br i1 %108, label %109, label %150

109:                                              ; preds = %102
  %110 = getelementptr inbounds [6 x i32], [6 x i32]* %8, i64 0, i64 2
  %111 = load i32, i32* %110, align 8
  %112 = sext i32 %111 to i64
  %113 = getelementptr inbounds [6 x i32], [6 x i32]* %7, i64 0, i64 %112
  %114 = load i32, i32* %113, align 4
  %115 = icmp eq i32 %114, 1
  br i1 %115, label %116, label %150

116:                                              ; preds = %109
  %117 = getelementptr inbounds [6 x i32], [6 x i32]* %8, i64 0, i64 3
  %118 = load i32, i32* %117, align 4
  %119 = sext i32 %118 to i64
  %120 = getelementptr inbounds [6 x i32], [6 x i32]* %7, i64 0, i64 %119
  %121 = load i32, i32* %120, align 4
  %122 = getelementptr inbounds [6 x i32], [6 x i32]* %8, i64 0, i64 4
  %123 = load i32, i32* %122, align 16
  %124 = sext i32 %123 to i64
  %125 = getelementptr inbounds [6 x i32], [6 x i32]* %7, i64 0, i64 %124
  %126 = load i32, i32* %125, align 4
  %127 = add nsw i32 %121, %126
  %128 = getelementptr inbounds [6 x i32], [6 x i32]* %8, i64 0, i64 5
  %129 = load i32, i32* %128, align 4
  %130 = sext i32 %129 to i64
  %131 = getelementptr inbounds [6 x i32], [6 x i32]* %7, i64 0, i64 %130
  %132 = load i32, i32* %131, align 4
  %133 = add nsw i32 %127, %132
  %134 = icmp eq i32 %133, 0
  br i1 %134, label %135, label %150

135:                                              ; preds = %116
  %136 = load i32, i32* %2, align 4
  %137 = call dereferenceable(272) %"class.std::basic_ostream"* @_ZNSolsEi(%"class.std::basic_ostream"* @_ZSt4cout, i32 %136)
  %138 = call dereferenceable(272) %"class.std::basic_ostream"* @_ZStlsISt11char_traitsIcEERSt13basic_ostreamIcT_ES5_c(%"class.std::basic_ostream"* dereferenceable(272) %137, i8 signext 32)
  %139 = load i32, i32* %3, align 4
  %140 = call dereferenceable(272) %"class.std::basic_ostream"* @_ZNSolsEi(%"class.std::basic_ostream"* %138, i32 %139)
  %141 = call dereferenceable(272) %"class.std::basic_ostream"* @_ZStlsISt11char_traitsIcEERSt13basic_ostreamIcT_ES5_c(%"class.std::basic_ostream"* dereferenceable(272) %140, i8 signext 32)
  %142 = load i32, i32* %4, align 4
  %143 = call dereferenceable(272) %"class.std::basic_ostream"* @_ZNSolsEi(%"class.std::basic_ostream"* %141, i32 %142)
  %144 = call dereferenceable(272) %"class.std::basic_ostream"* @_ZStlsISt11char_traitsIcEERSt13basic_ostreamIcT_ES5_c(%"class.std::basic_ostream"* dereferenceable(272) %143, i8 signext 32)
  %145 = load i32, i32* %5, align 4
  %146 = call dereferenceable(272) %"class.std::basic_ostream"* @_ZNSolsEi(%"class.std::basic_ostream"* %144, i32 %145)
  %147 = call dereferenceable(272) %"class.std::basic_ostream"* @_ZStlsISt11char_traitsIcEERSt13basic_ostreamIcT_ES5_c(%"class.std::basic_ostream"* dereferenceable(272) %146, i8 signext 32)
  %148 = load i32, i32* %6, align 4
  %149 = call dereferenceable(272) %"class.std::basic_ostream"* @_ZNSolsEi(%"class.std::basic_ostream"* %147, i32 %148)
  br label %150

150:                                              ; preds = %135, %116, %109, %102, %99, %53
  br label %151

151:                                              ; preds = %150, %52
  %152 = load i32, i32* %5, align 4
  %153 = add nsw i32 %152, 1
  store i32 %153, i32* %5, align 4
  br label %37

154:                                              ; preds = %37
  br label %155

155:                                              ; preds = %154, %35
  %156 = load i32, i32* %4, align 4
  %157 = add nsw i32 %156, 1
  store i32 %157, i32* %4, align 4
  br label %24

158:                                              ; preds = %24
  br label %159

159:                                              ; preds = %158, %22
  %160 = load i32, i32* %3, align 4
  %161 = add nsw i32 %160, 1
  store i32 %161, i32* %3, align 4
  br label %15

162:                                              ; preds = %15
  br label %163

163:                                              ; preds = %162
  %164 = load i32, i32* %2, align 4
  %165 = add nsw i32 %164, 1
  store i32 %165, i32* %2, align 4
  br label %11

166:                                              ; preds = %11
  ret i32 0
}

; Function Attrs: argmemonly nounwind willreturn
declare void @llvm.memset.p0i8.i64(i8* nocapture writeonly, i8, i64, i1 immarg) #5

declare dso_local dereferenceable(272) %"class.std::basic_ostream"* @_ZStlsISt11char_traitsIcEERSt13basic_ostreamIcT_ES5_c(%"class.std::basic_ostream"* dereferenceable(272), i8 signext) #1

declare dso_local dereferenceable(272) %"class.std::basic_ostream"* @_ZNSolsEi(%"class.std::basic_ostream"*, i32) #1

; Function Attrs: noinline uwtable
define internal void @_GLOBAL__sub_I_90.cpp() #0 section ".text.startup" {
  call void @__cxx_global_var_init()
  ret void
}


!llvm.module.flags = !{!0}
!llvm.ident = !{!1}

!0 = !{i32 1, !"wchar_size", i32 4}
!1 = !{!"clang version 10.0.0-4ubuntu1 "}
